target datalayout = "e-m:e-p270:32:32-p271:32:32-p272:64:64-i64:64-i128:128-f80:128-n8:16:32:64-S128"
target triple = "x86_64-pc-linux-gnu"

%"struct.duckdb_zstd::ZSTD_customMem" = type { ptr, ptr, ptr }
%"struct.duckdb_zstd::ZSTD_frameParameters" = type { i32, i32, i32 }
%"struct.duckdb_zstd::ZSTD_compressionParameters" = type { i32, i32, i32, i32, i32, i32, i32 }
%"struct.duckdb_zstd::ZSTD_CCtx_params_s" = type { i32, %"struct.duckdb_zstd::ZSTD_compressionParameters", %"struct.duckdb_zstd::ZSTD_frameParameters", i32, i32, i64, i32, i32, i32, i32, i64, i32, i32, %"struct.duckdb_zstd::ldmParams_t", i32, i32, i32, i32, i32, i32, i32, i32, %"struct.duckdb_zstd::ZSTD_customMem", i32, i32, ptr, ptr, i64, i32 }
%"struct.duckdb_zstd::ldmParams_t" = type { i32, i32, i32, i32, i32, i32 }
%"struct.duckdb_zstd::ZSTD_cwksp" = type { ptr, ptr, ptr, ptr, ptr, ptr, ptr, i8, i32, i32, i32 }
%"struct.duckdb_zstd::ZSTD_window_t" = type { ptr, ptr, ptr, i32, i32, i32 }
%"struct.duckdb_zstd::ZSTD_matchState_t" = type { %"struct.duckdb_zstd::ZSTD_window_t", i32, i32, i32, i32, ptr, [8 x i32], i64, i32, ptr, ptr, ptr, i32, i32, %"struct.duckdb_zstd::optState_t", ptr, %"struct.duckdb_zstd::ZSTD_compressionParameters", ptr, i32, i32 }
%"struct.duckdb_zstd::optState_t" = type { ptr, ptr, ptr, ptr, ptr, ptr, i32, i32, i32, i32, i32, i32, i32, i32, i32, ptr, i32 }
%"struct.duckdb_zstd::ZSTD_compressedBlockState_t" = type { %"struct.duckdb_zstd::ZSTD_entropyCTables_t", [3 x i32] }
%"struct.duckdb_zstd::ZSTD_entropyCTables_t" = type { %"struct.duckdb_zstd::ZSTD_hufCTables_t", %"struct.duckdb_zstd::ZSTD_fseCTables_t" }
%"struct.duckdb_zstd::ZSTD_hufCTables_t" = type { [257 x i64], i32 }
%"struct.duckdb_zstd::ZSTD_fseCTables_t" = type { [193 x i32], [363 x i32], [329 x i32], i32, i32, i32 }
%"struct.duckdb_zstd::ZSTD_CDict_s" = type { ptr, i64, i32, ptr, %"struct.duckdb_zstd::ZSTD_cwksp", %"struct.duckdb_zstd::ZSTD_matchState_t", %"struct.duckdb_zstd::ZSTD_compressedBlockState_t", %"struct.duckdb_zstd::ZSTD_customMem", i32, i32, i32 }

@_ZN11duckdb_zstdL16ZSTD_defaultCMemE = internal constant %"struct.duckdb_zstd::ZSTD_customMem" zeroinitializer, align 8

; Function Attrs: mustprogress nounwind uwtable
define noundef i64 @_ZN11duckdb_zstd20ZSTD_CCtxParams_initEPNS_18ZSTD_CCtx_params_sEi(ptr noundef %0, i32 noundef %1) #0 {
  %3 = alloca i64, align 8
  %4 = alloca ptr, align 8
  %5 = alloca i32, align 4
  store ptr %0, ptr %4, align 8, !tbaa !96
  store i32 %1, ptr %5, align 4, !tbaa !79
  br label %6

6:                                                ; preds = %2
  %7 = load ptr, ptr %4, align 8, !tbaa !96
  %8 = icmp ne ptr %7, null
  br i1 %8, label %18, label %9

9:                                                ; preds = %6
  br label %10

10:                                               ; preds = %9
  br label %11

11:                                               ; preds = %10
  br label %12

12:                                               ; preds = %11
  br label %13

13:                                               ; preds = %12
  br label %14

14:                                               ; preds = %13
  br label %15

15:                                               ; preds = %14
  br label %16

16:                                               ; preds = %15
  br label %17

17:                                               ; preds = %16
  store i64 -1, ptr %3, align 8
  br label %27

18:                                               ; preds = %6
  br label %19

19:                                               ; preds = %18
  %20 = load ptr, ptr %4, align 8, !tbaa !96
  call void @llvm.memset.p0.i64(ptr align 8 %20, i8 0, i64 216, i1 false)
  %21 = load i32, ptr %5, align 4, !tbaa !79
  %22 = load ptr, ptr %4, align 8, !tbaa !96
  %23 = getelementptr inbounds nuw %"struct.duckdb_zstd::ZSTD_CCtx_params_s", ptr %22, i32 0, i32 3
  store i32 %21, ptr %23, align 4, !tbaa !98
  %24 = load ptr, ptr %4, align 8, !tbaa !96
  %25 = getelementptr inbounds nuw %"struct.duckdb_zstd::ZSTD_CCtx_params_s", ptr %24, i32 0, i32 2
  %26 = getelementptr inbounds nuw %"struct.duckdb_zstd::ZSTD_frameParameters", ptr %25, i32 0, i32 0
  store i32 1, ptr %26, align 8, !tbaa !99
  store i64 0, ptr %3, align 8
  br label %27

27:                                               ; preds = %19, %17
  %28 = load i64, ptr %3, align 8
  ret i64 %28
}

; Function Attrs: mustprogress uwtable
define noundef ptr @_ZN11duckdb_zstd25ZSTD_createCDict_advancedEPKvmNS_21ZSTD_dictLoadMethod_eENS_22ZSTD_dictContentType_eENS_26ZSTD_compressionParametersENS_14ZSTD_customMemE(ptr noundef %0, i64 noundef %1, i32 noundef %2, i32 noundef %3, ptr noundef byval(%"struct.duckdb_zstd::ZSTD_compressionParameters") align 8 %4, ptr noundef byval(%"struct.duckdb_zstd::ZSTD_customMem") align 8 %5) #2 {
  %7 = alloca ptr, align 8
  %8 = alloca i64, align 8
  %9 = alloca i32, align 4
  %10 = alloca i32, align 4
  %11 = alloca %"struct.duckdb_zstd::ZSTD_CCtx_params_s", align 8
  %12 = alloca %"struct.duckdb_zstd::ZSTD_customMem", align 8
  store ptr %0, ptr %7, align 8, !tbaa !8
  store i64 %1, ptr %8, align 8, !tbaa !3
  store i32 %2, ptr %9, align 4, !tbaa !164
  store i32 %3, ptr %10, align 4, !tbaa !91
  call void @llvm.lifetime.start.p0(i64 216, ptr %11) #16
  call void @llvm.memset.p0.i64(ptr align 8 %11, i8 0, i64 216, i1 false)
  %13 = call noundef i64 @_ZN11duckdb_zstd20ZSTD_CCtxParams_initEPNS_18ZSTD_CCtx_params_sEi(ptr noundef %11, i32 noundef 0)
  %14 = getelementptr inbounds nuw %"struct.duckdb_zstd::ZSTD_CCtx_params_s", ptr %11, i32 0, i32 1
  call void @llvm.memcpy.p0.p0.i64(ptr align 4 %14, ptr align 8 %4, i64 28, i1 false), !tbaa.struct !100
  %15 = getelementptr inbounds nuw %"struct.duckdb_zstd::ZSTD_CCtx_params_s", ptr %11, i32 0, i32 22
  call void @llvm.memcpy.p0.p0.i64(ptr align 8 %15, ptr align 8 %5, i64 24, i1 false), !tbaa.struct !7
  %16 = load ptr, ptr %7, align 8, !tbaa !8
  %17 = load i64, ptr %8, align 8, !tbaa !3
  %18 = load i32, ptr %9, align 4, !tbaa !164
  %19 = load i32, ptr %10, align 4, !tbaa !91
  call void @llvm.memcpy.p0.p0.i64(ptr align 8 %12, ptr align 8 %5, i64 24, i1 false), !tbaa.struct !7
  %20 = call noundef ptr @_ZN11duckdb_zstd26ZSTD_createCDict_advanced2EPKvmNS_21ZSTD_dictLoadMethod_eENS_22ZSTD_dictContentType_eEPKNS_18ZSTD_CCtx_params_sENS_14ZSTD_customMemE(ptr noundef %16, i64 noundef %17, i32 noundef %18, i32 noundef %19, ptr noundef %11, ptr noundef byval(%"struct.duckdb_zstd::ZSTD_customMem") align 8 %12)
  call void @llvm.lifetime.end.p0(i64 216, ptr %11) #16
  ret ptr %20
}

; Function Attrs: mustprogress uwtable
define noundef ptr @_ZN11duckdb_zstd16ZSTD_createCDictEPKvmi(ptr noundef %0, i64 noundef %1, i32 noundef %2) #2 {
  %4 = alloca ptr, align 8
  %5 = alloca i64, align 8
  %6 = alloca i32, align 4
  %7 = alloca %"struct.duckdb_zstd::ZSTD_compressionParameters", align 4
  %8 = alloca ptr, align 8
  %9 = alloca %"struct.duckdb_zstd::ZSTD_compressionParameters", align 8
  %10 = alloca %"struct.duckdb_zstd::ZSTD_customMem", align 8
  store ptr %0, ptr %4, align 8, !tbaa !8
  store i64 %1, ptr %5, align 8, !tbaa !3
  store i32 %2, ptr %6, align 4, !tbaa !79
  call void @llvm.lifetime.start.p0(i64 28, ptr %7) #16
  %11 = load i32, ptr %6, align 4, !tbaa !79
  %12 = load i64, ptr %5, align 8, !tbaa !3
  call void @_ZN11duckdb_zstdL24ZSTD_getCParams_internalEiymNS_17ZSTD_cParamMode_eE(ptr dead_on_unwind writable sret(%"struct.duckdb_zstd::ZSTD_compressionParameters") align 4 %7, i32 noundef %11, i64 noundef -1, i64 noundef %12, i32 noundef 2)
  call void @llvm.lifetime.start.p0(i64 8, ptr %8) #16
  %13 = load ptr, ptr %4, align 8, !tbaa !8
  %14 = load i64, ptr %5, align 8, !tbaa !3
  call void @llvm.memcpy.p0.p0.i64(ptr align 4 %9, ptr align 4 %7, i64 28, i1 false), !tbaa.struct !100
  call void @llvm.memcpy.p0.p0.i64(ptr align 8 %10, ptr align 8 @_ZN11duckdb_zstdL16ZSTD_defaultCMemE, i64 24, i1 false), !tbaa.struct !7
  %15 = call noundef ptr @_ZN11duckdb_zstd25ZSTD_createCDict_advancedEPKvmNS_21ZSTD_dictLoadMethod_eENS_22ZSTD_dictContentType_eENS_26ZSTD_compressionParametersENS_14ZSTD_customMemE(ptr noundef %13, i64 noundef %14, i32 noundef 0, i32 noundef 0, ptr noundef byval(%"struct.duckdb_zstd::ZSTD_compressionParameters") align 8 %9, ptr noundef byval(%"struct.duckdb_zstd::ZSTD_customMem") align 8 %10)
  store ptr %15, ptr %8, align 8, !tbaa !92
  %16 = load ptr, ptr %8, align 8, !tbaa !92
  %17 = icmp ne ptr %16, null
  br i1 %17, label %18, label %28

18:                                               ; preds = %3
  %19 = load i32, ptr %6, align 4, !tbaa !79
  %20 = icmp eq i32 %19, 0
  br i1 %20, label %21, label %22

21:                                               ; preds = %18
  br label %24

22:                                               ; preds = %18
  %23 = load i32, ptr %6, align 4, !tbaa !79
  br label %24

24:                                               ; preds = %22, %21
  %25 = phi i32 [ 3, %21 ], [ %23, %22 ]
  %26 = load ptr, ptr %8, align 8, !tbaa !92
  %27 = getelementptr inbounds nuw %"struct.duckdb_zstd::ZSTD_CDict_s", ptr %26, i32 0, i32 9
  store i32 %25, ptr %27, align 4, !tbaa !297
  br label %28

28:                                               ; preds = %24, %3
  %29 = load ptr, ptr %8, align 8, !tbaa !92
  call void @llvm.lifetime.end.p0(i64 8, ptr %8) #16
  call void @llvm.lifetime.end.p0(i64 28, ptr %7) #16
  ret ptr %29
}