; Function Attrs: mustprogress uwtable
define noundef ptr @_ZN11duckdb_zstd16ZSTD_createCDictEPKvmi(ptr noundef %0, i64 noundef %1, i32 noundef %2) local_unnamed_addr #2 {
  %4 = alloca %"struct.duckdb_zstd::ZSTD_CCtx_params_s", align 8
  %5 = alloca %"struct.duckdb_zstd::ZSTD_compressionParameters", align 8
  call void @llvm.lifetime.start.p0(i64 28, ptr nonnull %5)
  call fastcc void @_ZN11duckdb_zstdL24ZSTD_getCParams_internalEiymNS_17ZSTD_cParamMode_eE(ptr dead_on_unwind noalias nonnull writable align 4 %5, i32 noundef %2, i64 noundef -1, i64 noundef %1, i32 noundef 2)
  call void @llvm.lifetime.start.p0(i64 216, ptr nonnull %4) #28
  %6 = getelementptr inbounds nuw i8, ptr %4, i64 32
  call void @llvm.memset.p0.i64(ptr noundef nonnull align 8 dereferenceable(216) %4, i8 0, i64 216, i1 false)
  store i32 1, ptr %6, align 8, !tbaa !58
  %7 = getelementptr inbounds nuw i8, ptr %4, i64 4
  call void @llvm.memcpy.p0.p0.i64(ptr noundef nonnull align 4 dereferenceable(28) %7, ptr noundef nonnull readonly align 8 dereferenceable(28) %5, i64 28, i1 false), !tbaa.struct !86
  %8 = getelementptr inbounds nuw i8, ptr %4, i64 152
  call void @llvm.memset.p0.i64(ptr noundef nonnull align 8 dereferenceable(24) %8, i8 0, i64 24, i1 false)
  %9 = call noundef ptr @_ZN11duckdb_zstd26ZSTD_createCDict_advanced2EPKvmNS_21ZSTD_dictLoadMethod_eENS_22ZSTD_dictContentType_eEPKNS_18ZSTD_CCtx_params_sENS_14ZSTD_customMemE(ptr noundef %0, i64 noundef %1, i32 noundef 0, i32 noundef 0, ptr noundef nonnull %4, ptr noundef nonnull byval(%"struct.duckdb_zstd::ZSTD_customMem") align 8 @_ZN11duckdb_zstdL16ZSTD_defaultCMemE)
  call void @llvm.lifetime.end.p0(i64 216, ptr nonnull %4) #28
  call void @llvm.lifetime.end.p0(i64 28, ptr nonnull %5)
  %.not = icmp eq ptr %9, null
  br i1 %.not, label %14, label %10

10:                                               ; preds = %3
  %11 = icmp eq i32 %2, 0
  %12 = select i1 %11, i32 3, i32 %2
  %13 = getelementptr inbounds nuw i8, ptr %9, i64 6068
  store i32 %12, ptr %13, align 4, !tbaa !283
  br label %14

14:                                               ; preds = %10, %3
  ret ptr %9
}